target datalayout = "e-m:e-p270:32:32-p271:32:32-p272:64:64-i64:64-i128:128-f80:128-n8:16:32:64-S128"
target triple = "x86_64-pc-linux-gnu"

%struct.list = type { ptr, ptr, ptr, ptr, ptr, i64 }

@lazyfree_objects = internal global i64 0, align 8

; Function Attrs: nounwind uwtable
define dso_local void @freeReplicationBacklogRefMemAsync(ptr noundef %0, ptr noundef %1) #0 {
  %3 = alloca ptr, align 8
  %4 = alloca ptr, align 8
  %5 = alloca i64, align 8
  %6 = alloca i64, align 8
  store ptr %0, ptr %3, align 8, !tbaa !19
  store ptr %1, ptr %4, align 8, !tbaa !15
  %7 = load ptr, ptr %3, align 8, !tbaa !19
  %8 = getelementptr inbounds nuw %struct.list, ptr %7, i32 0, i32 5
  %9 = load i64, ptr %8, align 8, !tbaa !27
  %10 = icmp ugt i64 %9, 64
  br i1 %10, label %15, label %11

11:                                               ; preds = %2
  %12 = load ptr, ptr %4, align 8, !tbaa !15
  %13 = call i64 @raxSize(ptr noundef %12)
  %14 = icmp ugt i64 %13, 64
  br i1 %14, label %15, label %26

15:                                               ; preds = %11, %2
  %16 = load ptr, ptr %3, align 8, !tbaa !19
  %17 = getelementptr inbounds nuw %struct.list, ptr %16, i32 0, i32 5
  %18 = load i64, ptr %17, align 8, !tbaa !27
  %19 = load ptr, ptr %4, align 8, !tbaa !15
  %20 = call i64 @raxSize(ptr noundef %19)
  %21 = add i64 %18, %20
  store i64 %21, ptr %5, align 8, !tbaa !11
  %22 = load i64, ptr %5, align 8
  %23 = atomicrmw add ptr @lazyfree_objects, i64 %22 monotonic, align 8
  store i64 %23, ptr %6, align 8
  %24 = load ptr, ptr %3, align 8, !tbaa !19
  %25 = load ptr, ptr %4, align 8, !tbaa !15
  call void (ptr, i32, ...) @bioCreateLazyFreeJob(ptr noundef @lazyFreeReplicationBacklogRefMem, i32 noundef 2, ptr noundef %24, ptr noundef %25)
  br label %29

26:                                               ; preds = %11
  %27 = load ptr, ptr %3, align 8, !tbaa !19
  call void @listRelease(ptr noundef %27)
  %28 = load ptr, ptr %4, align 8, !tbaa !15
  call void @raxFree(ptr noundef %28)
  br label %29

29:                                               ; preds = %26, %15
  ret void
}