; Function Attrs: nounwind uwtable
define dso_local void @freeReplicationBacklogRefMemAsync(ptr noundef %0, ptr noundef %1) local_unnamed_addr #0 {
  %3 = getelementptr inbounds nuw i8, ptr %0, i64 40
  %4 = load i64, ptr %3, align 8, !tbaa !11
  %5 = icmp ugt i64 %4, 64
  br i1 %5, label %9, label %6

6:                                                ; preds = %2
  %7 = tail call i64 @raxSize(ptr noundef %1) #6
  %8 = icmp ugt i64 %7, 64
  br i1 %8, label %._crit_edge, label %14

._crit_edge:                                      ; preds = %6
  %.pre = load i64, ptr %3, align 8, !tbaa !11
  br label %9

9:                                                ; preds = %._crit_edge, %2
  %10 = phi i64 [ %.pre, %._crit_edge ], [ %4, %2 ]
  %11 = tail call i64 @raxSize(ptr noundef %1) #6
  %12 = add i64 %11, %10
  %13 = atomicrmw add ptr @lazyfree_objects, i64 %12 monotonic, align 8
  tail call void (ptr, i32, ...) @bioCreateLazyFreeJob(ptr noundef nonnull @lazyFreeReplicationBacklogRefMem, i32 noundef 2, ptr noundef nonnull %0, ptr noundef %1) #6
  br label %15

14:                                               ; preds = %6
  tail call void @listRelease(ptr noundef nonnull %0) #6
  tail call void @raxFree(ptr noundef %1) #6
  br label %15

15:                                               ; preds = %14, %9
  ret void
}